Certificate:
    Data:
        Version: 1 (0x0)
        Serial Number: 1 (0x1)
        Signature Algorithm: md5WithRSAEncryption
        Issuer: C=CN, ST=Massachusetts, L=Westford, O=SMC, CN=SMC
        Validity
            Not Before: Sep 19 15:26:54 2013 GMT
            Not After : Sep 19 15:26:54 2014 GMT
        Subject: C=CN, ST=Massachusetts, O=SMC, CN=SMC
        Subject Public Key Info:
            Public Key Algorithm: rsaEncryption
            RSA Public Key: (1024 bit)
                Modulus (1024 bit):
                    00:af:72:9e:00:00:42:14:b6:21:fc:c8:b3:5f:df:
                    e7:7a:7d:90:4f:4b:b0:ac:f6:c2:c8:7c:89:27:88:
                    15:d5:9b:46:67:a8:73:2c:99:35:f4:f3:4a:45:11:
                    3c:fe:a6:2f:b4:38:7a:63:7c:49:80:08:c4:4a:b3:
                    55:63:f6:5f:0b:1e:8c:6a:0e:c4:eb:8f:60:27:e8:
                    a8:fe:93:81:de:f5:96:81:bc:02:27:e4:41:79:31:
                    4d:ac:e4:c1:6a:d1:2a:85:82:de:d0:6d:95:b8:fc:
                    8d:7a:cd:b4:23:14:6a:fd:88:8e:e6:af:9c:cc:04:
                    e6:60:4f:dc:a4:a2:86:ab:05
                Exponent: 65537 (0x10001)
    Signature Algorithm: md5WithRSAEncryption
        96:b7:fa:7d:aa:8f:f8:12:ae:3c:1c:e4:c7:a9:ba:37:89:62:
        33:2c:b1:d8:05:ac:a2:4b:df:50:d7:b5:21:17:2e:1b:a7:62:
        cb:2e:45:cb:28:5d:0a:29:91:27:7d:39:e3:9b:16:0c:b5:1e:
        75:66:99:54:db:08:0b:12:6c:bd:82:db:d0:fb:b8:7a:68:91:
        5d:fc:ad:df:f8:c7:d5:61:7e:76:cf:dd:99:0f:29:c3:40:c1:
        21:c6:6d:25:7e:42:e8:75:71:13:c9:b7:e9:df:93:5f:d4:1b:
        24:e4:6d:3b:55:55:e8:06:7d:fb:90:9f:89:cc:2a:ec:51:e0:
        45:0e
-----BEGIN CERTIFICATE-----
MIICBDCCAW0CAQEwDQYJKoZIhvcNAQEEBQAwVDELMAkGA1UEBhMCQ04xFjAUBgNV
BAgTDU1hc3NhY2h1c2V0dHMxETAPBgNVBAcTCFdlc3Rmb3JkMQwwCgYDVQQKEwNT
TUMxDDAKBgNVBAMTA1NNQzAeFw0xMzA5MTkxNTI2NTRaFw0xNDA5MTkxNTI2NTRa
MEExCzAJBgNVBAYTAkNOMRYwFAYDVQQIEw1NYXNzYWNodXNldHRzMQwwCgYDVQQK
EwNTTUMxDDAKBgNVBAMTA1NNQzCBnzANBgkqhkiG9w0BAQEFAAOBjQAwgYkCgYEA
r3KeAABCFLYh/MizX9/nen2QT0uwrPbCyHyJJ4gV1ZtGZ6hzLJk19PNKRRE8/qYv
tDh6Y3xJgAjESrNVY/ZfCx6Mag7E649gJ+io/pOB3vWWgbwCJ+RBeTFNrOTBatEq
hYLe0G2VuPyNes20IxRq/YiO5q+czATmYE/cpKKGqwUCAwEAATANBgkqhkiG9w0B
AQQFAAOBgQCWt/p9qo/4Eq48HOTHqbo3iWIzLLHYBayiS99Q17UhFy4bp2LLLkXL
KF0KKZEnfTnjmxYMtR51ZplU2wgLEmy9gtvQ+7h6aJFd/K3f+MfVYX52z92ZDynD
QMEhxm0lfkLodXETybfp35Nf1Bsk5G07VVXoBn37kJ+JzCrsUeBFDg==
-----END CERTIFICATE-----
