Certificate:
    Data:
        Version: 1 (0x0)
        Serial Number: 1 (0x1)
        Signature Algorithm: md5WithRSAEncryption
        Issuer: C=CN, ST=Massachusetts, L=Westford, O=SMC, CN=SMC
        Validity
            Not Before: Sep 22 11:35:29 2013 GMT
            Not After : Sep 22 11:35:29 2014 GMT
        Subject: C=CN, ST=Massachusetts, O=SMC, CN=SMC
        Subject Public Key Info:
            Public Key Algorithm: rsaEncryption
            RSA Public Key: (1024 bit)
                Modulus (1024 bit):
                    00:c8:3d:14:eb:90:5d:5f:56:11:ea:b9:ce:a1:15:
                    fb:b6:53:39:02:96:a7:8d:44:f3:21:25:e7:ca:81:
                    bc:f8:c4:04:e4:04:8a:ed:3d:b4:45:b4:b9:e4:d7:
                    ee:c7:19:47:e1:f3:3d:6c:32:88:3e:3a:f3:4f:22:
                    e2:e3:bd:a7:9c:1c:eb:9a:d3:52:3c:23:7d:12:17:
                    4b:37:e9:a3:1d:98:7a:79:af:92:77:5a:59:00:2d:
                    e4:58:da:78:b5:8c:e1:74:be:d9:f1:be:c9:ff:ae:
                    f7:48:cd:3a:b7:77:55:2c:d0:5c:f7:88:43:20:9c:
                    f8:15:4e:2c:3e:b5:7b:d0:bf
                Exponent: 65537 (0x10001)
    Signature Algorithm: md5WithRSAEncryption
        a2:f9:80:33:d3:d0:28:0f:26:5f:4b:c0:2e:1c:d3:7f:a5:0f:
        ee:af:39:b0:23:cd:69:ef:0c:38:4e:59:1b:cd:ef:5e:f5:3c:
        31:67:97:96:2d:f8:43:9a:f2:5b:73:f6:07:2b:fd:b3:20:8f:
        ea:e8:ea:85:31:54:33:0d:a0:f5:0b:c5:a2:09:f4:4d:c9:f1:
        13:c3:07:15:84:a0:6d:b3:a3:96:58:b7:a4:2c:3d:91:18:83:
        ac:be:55:38:dc:34:78:1e:52:9c:ad:32:02:87:dc:d6:00:d6:
        25:2f:31:e1:6a:5a:9b:02:3f:51:54:4f:f3:4a:53:4f:3b:eb:
        09:b2
-----BEGIN CERTIFICATE-----
MIICBDCCAW0CAQEwDQYJKoZIhvcNAQEEBQAwVDELMAkGA1UEBhMCQ04xFjAUBgNV
BAgTDU1hc3NhY2h1c2V0dHMxETAPBgNVBAcTCFdlc3Rmb3JkMQwwCgYDVQQKEwNT
TUMxDDAKBgNVBAMTA1NNQzAeFw0xMzA5MjIxMTM1MjlaFw0xNDA5MjIxMTM1Mjla
MEExCzAJBgNVBAYTAkNOMRYwFAYDVQQIEw1NYXNzYWNodXNldHRzMQwwCgYDVQQK
EwNTTUMxDDAKBgNVBAMTA1NNQzCBnzANBgkqhkiG9w0BAQEFAAOBjQAwgYkCgYEA
yD0U65BdX1YR6rnOoRX7tlM5ApanjUTzISXnyoG8+MQE5ASK7T20RbS55NfuxxlH
4fM9bDKIPjrzTyLi472nnBzrmtNSPCN9EhdLN+mjHZh6ea+Sd1pZAC3kWNp4tYzh
dL7Z8b7J/673SM06t3dVLNBc94hDIJz4FU4sPrV70L8CAwEAATANBgkqhkiG9w0B
AQQFAAOBgQCi+YAz09AoDyZfS8AuHNN/pQ/urzmwI81p7ww4Tlkbze9e9TwxZ5eW
LfhDmvJbc/YHK/2zII/q6OqFMVQzDaD1C8WiCfRNyfETwwcVhKBts6OWWLekLD2R
GIOsvlU43DR4HlKcrTICh9zWANYlLzHhalqbAj9RVE/zSlNPO+sJsg==
-----END CERTIFICATE-----
